; Function Attrs: mustprogress nofree norecurse nosync nounwind willreturn memory(write, argmem: none, inaccessiblemem: none) uwtable
define internal void @_ZL7onMouseiiiiPv(i32 noundef %0, i32 noundef %1, i32 noundef %2, i32 %3, ptr readnone captures(none) %4) #5 {
  %6 = icmp eq i32 %0, 1
  br i1 %6, label %7, label %10

7:                                                ; preds = %5
  %8 = sitofp i32 %1 to float
  %9 = sitofp i32 %2 to float
  store float %8, ptr @point, align 8
  store float %9, ptr getelementptr inbounds nuw (i8, ptr @point, i64 4), align 4
  store i8 1, ptr @addRemovePt, align 1, !tbaa !49
  br label %10

10:                                               ; preds = %7, %5
  ret void
}